(dp0
S'valid_acc'
p1
(lp2
F0.5007999999999999
aF0.5000000000000001
aF0.5
aF0.5000000000000003
aF0.5000000000000001
aF0.5000000000000002
aF0.5
aF0.49999999999999994
aF0.5
aF0.49999999999999994
aF0.49999999999999983
aF0.5000000000000001
aF0.49999999999999983
aF0.5000000000000001
aF0.5
aF0.5000000000000001
aF0.5000000000000002
aF0.5000000000000001
aF0.5000000000000001
aF0.5000000000000001
aF0.5000000000000001
aF0.5000000000000002
aF0.5000000000000001
aF0.5000000000000001
aF0.5000000000000001
aF0.49999999999999994
aF0.5
aF0.5000000000000001
aF0.5000000000000002
aF0.5000000000000001
aF0.49999999999999994
aF0.4999999999999998
aF0.49999999999999994
aF0.4999999999999998
aF0.5000000000000001
aF0.5
aF0.49999999999999983
aF0.5
aF0.5000000000000001
aF0.5000000000000001
aF0.5000000000000001
aF0.49999999999999994
aF0.49999999999999983
aF0.49999999999999994
aF0.5
aF0.5000000000000001
aF0.5
aF0.5
aF0.49999999999999994
aF0.5000000000000001
aF0.49999999999999983
aF0.49999999999999994
aF0.5000000000000001
aF0.5000000000000001
aF0.5000000000000001
aF0.49999999999999983
aF0.49999999999999994
aF0.5000000000000001
aF0.5000000000000001
aF0.5000000000000002
aF0.49999999999999994
aF0.5
aF0.5000000000000001
aF0.49999999999999994
aF0.5000000000000001
aF0.5
aF0.5000000000000001
aF0.49999999999999994
aF0.5000000000000001
aF0.5000000000000002
aF0.5000000000000001
aF0.5
aF0.5000000000000001
aF0.5000000000000001
aF0.5000000000000001
aF0.5000000000000001
aF0.49999999999999994
aF0.5000000000000001
aF0.5
aF0.49999999999999994
aF0.5000000000000001
aF0.4999999999999998
aF0.5000000000000001
aF0.5
aF0.49999999999999983
aF0.49999999999999994
aF0.5
aF0.5000000000000001
aF0.5000000000000001
aF0.5000000000000002
aF0.49999999999999994
aF0.5000000000000001
aF0.49999999999999994
aF0.5
aF0.5
aF0.49999999999999983
aF0.5000000000000002
aF0.5000000000000001
aF0.4999999999999998
aF0.49999999999999994
asS'test_acc'
p3
(lp4
F0.5016000000000002
aF0.49999999999999994
aF0.5000000000000001
aF0.5000000000000001
aF0.5000000000000001
aF0.5000000000000001
aF0.5
aF0.5
aF0.49999999999999983
aF0.5000000000000001
aF0.5000000000000001
aF0.5000000000000001
aF0.5000000000000003
aF0.5000000000000002
aF0.5
aF0.5
aF0.5
aF0.49999999999999994
aF0.4999999999999998
aF0.5000000000000001
aF0.5000000000000001
aF0.49999999999999994
aF0.5000000000000002
aF0.5000000000000001
aF0.49999999999999983
aF0.5000000000000002
aF0.49999999999999994
aF0.5000000000000001
aF0.4999999999999997
aF0.49999999999999994
aF0.49999999999999983
aF0.4999999999999998
aF0.5000000000000002
aF0.49999999999999994
aF0.49999999999999994
aF0.4999999999999998
aF0.5000000000000001
aF0.5
aF0.49999999999999944
aF0.4999999999999998
aF0.5
aF0.5000000000000001
aF0.49999999999999994
aF0.5000000000000001
aF0.5000000000000001
aF0.5000000000000001
aF0.5000000000000001
aF0.49999999999999983
aF0.5000000000000001
aF0.49999999999999983
aF0.5000000000000001
aF0.5000000000000001
aF0.4999999999999998
aF0.49999999999999994
aF0.5
aF0.5000000000000001
aF0.5000000000000001
aF0.5000000000000001
aF0.5000000000000001
aF0.5
aF0.5000000000000002
aF0.49999999999999983
aF0.49999999999999994
aF0.5000000000000002
aF0.5000000000000001
aF0.4999999999999997
aF0.49999999999999994
aF0.5
aF0.5000000000000001
aF0.49999999999999994
aF0.5
aF0.49999999999999983
aF0.5000000000000001
aF0.49999999999999967
aF0.5000000000000001
aF0.49999999999999983
aF0.49999999999999994
aF0.5
aF0.49999999999999983
aF0.5
aF0.49999999999999983
aF0.4999999999999998
aF0.5000000000000001
aF0.49999999999999994
aF0.5000000000000002
aF0.5
aF0.5000000000000002
aF0.4999999999999998
aF0.5000000000000001
aF0.5000000000000001
aF0.5000000000000001
aF0.5000000000000001
aF0.5000000000000002
aF0.49999999999999994
aF0.5000000000000003
aF0.5
aF0.5000000000000001
aF0.5000000000000001
aF0.5
aF0.5000000000000001
asS'train_loss'
p5
(lp6
F2.2339018340905508
aF0.6935386564334234
aF0.6935238337516785
aF0.6934410222371419
aF0.6937814406553904
aF0.6934469030300776
aF0.693454254468282
aF0.6935668627421061
aF0.6933896096547445
aF0.6934812943140666
aF0.6934984105825425
aF0.6935774866739909
aF0.6936712215344111
aF0.6936508148908616
aF0.6934748703241348
aF0.6936939299106598
aF0.6935397835572561
aF0.6934918783108394
aF0.6936588644981384
aF0.6935406456391017
aF0.6935205274820327
aF0.6935138078530629
aF0.6938255266348521
aF0.6935102846225103
aF0.6936475890874862
aF0.693564004500707
aF0.6937427550554276
aF0.6936301565170289
aF0.6935276724894841
aF0.6934111042817434
aF0.693560833533605
aF0.6935637281338374
aF0.6934806046883265
aF0.6935128645102183
aF0.6935193826754887
aF0.6937783730030059
aF0.6935630714893342
aF0.6935586873690287
aF0.6935116068522136
aF0.6934601138035457
aF0.6934646584590276
aF0.6935014474391937
aF0.6934031945466995
aF0.693422509431839
aF0.6936523218949636
aF0.6932158190011978
aF0.6936393694082896
aF0.6935082079966863
aF0.6936051378647486
aF0.6934537104765575
aF0.6935268878936768
aF0.6934681020180384
aF0.6936379474401474
aF0.6937313218911488
aF0.6936269470055898
aF0.6935550113519032
aF0.6934895795583725
aF0.693687029282252
aF0.6937040124336878
aF0.6934957267840703
aF0.693513283530871
aF0.6935986286401749
aF0.6934066786368688
aF0.6934357386827469
aF0.6934572730461757
aF0.6933832937479019
aF0.6934599552551906
aF0.6936321006218592
aF0.6935455377896627
aF0.6936003295580546
aF0.6932727054754892
aF0.6932361326615015
aF0.6936472745736441
aF0.69341823220253
aF0.693553160627683
aF0.6933987162510554
aF0.6934159392118454
aF0.6935842285553614
aF0.693494564294815
aF0.6934765340884527
aF0.6936490660905839
aF0.6935680850346884
aF0.6934015492598216
aF0.6934352354208628
aF0.6936768931150437
aF0.6935176340738932
aF0.6937562622626623
aF0.6936160453160604
aF0.6934101764361064
aF0.6937221656243007
aF0.6935135453939438
aF0.6935619306564331
aF0.6934281114737193
aF0.6933721017837524
aF0.6934516272942225
aF0.693378275235494
aF0.693607640862465
aF0.6936716622114182
aF0.6933304550250371
aF0.6937005090713501
asS'train_acc'
p7
(lp8
F0.5031333333333333
aF0.4999999999999999
aF0.5000000000000003
aF0.5000000000000001
aF0.5000000000000002
aF0.4999999999999999
aF0.5
aF0.5
aF0.5000000000000001
aF0.5000000000000001
aF0.4999999999999999
aF0.5000000000000006
aF0.5
aF0.4999999999999999
aF0.4999999999999997
aF0.5000000000000006
aF0.5000000000000001
aF0.5000000000000002
aF0.49999999999999983
aF0.5000000000000003
aF0.4999999999999996
aF0.5
aF0.5
aF0.5000000000000002
aF0.49999999999999944
aF0.4999999999999997
aF0.5000000000000002
aF0.5
aF0.5000000000000002
aF0.4999999999999999
aF0.4999999999999999
aF0.4999999999999996
aF0.5
aF0.5000000000000003
aF0.5
aF0.5
aF0.5000000000000001
aF0.5000000000000004
aF0.5
aF0.5000000000000006
aF0.4999999999999999
aF0.4999999999999999
aF0.5000000000000002
aF0.4999999999999997
aF0.4999999999999997
aF0.4999999999999996
aF0.5
aF0.5000000000000002
aF0.5000000000000002
aF0.5000000000000002
aF0.5000000000000002
aF0.49999999999999983
aF0.5
aF0.5
aF0.4999999999999999
aF0.4999999999999996
aF0.4999999999999995
aF0.4999999999999999
aF0.4999999999999997
aF0.5000000000000001
aF0.5000000000000001
aF0.5
aF0.49999999999999983
aF0.5000000000000003
aF0.4999999999999999
aF0.5
aF0.49999999999999944
aF0.49999999999999983
aF0.5000000000000001
aF0.5
aF0.5000000000000002
aF0.5000000000000002
aF0.49999999999999983
aF0.5000000000000002
aF0.5000000000000001
aF0.4999999999999999
aF0.5000000000000001
aF0.5000000000000002
aF0.5000000000000006
aF0.4999999999999999
aF0.5
aF0.4999999999999995
aF0.5000000000000001
aF0.5000000000000001
aF0.5
aF0.4999999999999999
aF0.5000000000000002
aF0.4999999999999999
aF0.5000000000000001
aF0.4999999999999999
aF0.4999999999999999
aF0.5
aF0.5000000000000002
aF0.5
aF0.5000000000000002
aF0.5000000000000001
aF0.5
aF0.5000000000000002
aF0.5000000000000003
aF0.5000000000000001
as.