(dp0
S'valid_acc'
p1
(lp2
F0.6025999999999998
aF0.6411999999999998
aF0.6247999999999998
aF0.6132
aF0.6729999999999999
aF0.6750000000000002
aF0.699
aF0.6977999999999999
aF0.6906
aF0.7321999999999999
aF0.7306000000000004
aF0.7566000000000002
aF0.7514000000000002
aF0.7478
aF0.7113999999999998
aF0.7478000000000002
aF0.7428
aF0.7607999999999997
aF0.7412000000000001
aF0.76
aF0.7699999999999997
aF0.7737999999999999
aF0.7423999999999998
aF0.7713999999999999
aF0.7764000000000003
aF0.7772
aF0.7816000000000001
aF0.7716000000000003
aF0.76
aF0.775
aF0.7761999999999999
aF0.7796000000000001
aF0.7658
aF0.7807999999999999
aF0.7826
aF0.7752
aF0.7866000000000004
aF0.7851999999999998
aF0.7688000000000001
aF0.7831999999999999
aF0.7826000000000002
aF0.7807999999999997
aF0.7338
aF0.7919999999999999
aF0.7892
aF0.7884000000000002
aF0.7842000000000003
aF0.7966
aF0.7964000000000001
aF0.7365999999999999
aF0.7899999999999998
aF0.7884000000000002
aF0.7744
aF0.789
aF0.7829999999999996
aF0.7930000000000001
aF0.7916000000000003
aF0.8035999999999998
aF0.8052000000000002
aF0.8047999999999998
aF0.7709999999999998
aF0.7914000000000004
aF0.7827999999999997
aF0.7909999999999999
aF0.7984
aF0.8088000000000004
aF0.7894
aF0.7986000000000001
aF0.8040000000000002
aF0.7805999999999998
aF0.7758000000000002
aF0.7272
aF0.8021999999999997
aF0.8051999999999998
aF0.8054000000000003
aF0.8136
aF0.7924000000000001
aF0.8008000000000002
aF0.8190000000000001
aF0.7936000000000003
aF0.8160000000000001
aF0.8103999999999997
aF0.7943999999999999
aF0.7952000000000004
aF0.8189999999999997
aF0.8049999999999998
aF0.8168
aF0.7874000000000001
aF0.8144000000000001
aF0.7997999999999997
aF0.8126000000000001
aF0.8112000000000004
aF0.8084000000000002
aF0.8138
aF0.8131999999999999
aF0.8113999999999996
aF0.7851999999999997
aF0.816
aF0.8131999999999998
aF0.8065999999999999
asS'test_acc'
p3
(lp4
F0.6045999999999999
aF0.6321999999999997
aF0.6265999999999999
aF0.6112000000000001
aF0.6662
aF0.6837999999999999
aF0.7056000000000001
aF0.7039999999999997
aF0.6980000000000003
aF0.7454000000000001
aF0.7389999999999999
aF0.7678000000000003
aF0.7685999999999998
aF0.76
aF0.7191999999999998
aF0.7568
aF0.7612000000000001
aF0.7827999999999996
aF0.7476
aF0.7768000000000002
aF0.7782000000000001
aF0.7867999999999999
aF0.7566000000000002
aF0.7878000000000004
aF0.7837999999999998
aF0.7938000000000001
aF0.7958
aF0.7898000000000003
aF0.7684000000000002
aF0.7858000000000003
aF0.7901999999999996
aF0.7912
aF0.7706000000000002
aF0.7979999999999999
aF0.7949999999999997
aF0.7948
aF0.8074000000000002
aF0.8034
aF0.7716000000000001
aF0.8035999999999999
aF0.7967999999999997
aF0.7911999999999998
aF0.7445999999999998
aF0.8047999999999997
aF0.8023999999999998
aF0.7922000000000002
aF0.8011999999999998
aF0.8034
aF0.8073999999999998
aF0.7440000000000001
aF0.8021999999999998
aF0.7984
aF0.791
aF0.8043999999999998
aF0.7848
aF0.8135999999999999
aF0.7973999999999997
aF0.8068
aF0.8126000000000002
aF0.8194
aF0.7851999999999996
aF0.7911999999999998
aF0.7868
aF0.8018000000000001
aF0.8148000000000003
aF0.8155999999999998
aF0.8013999999999997
aF0.8145999999999998
aF0.8102000000000003
aF0.7932000000000001
aF0.7757999999999998
aF0.7367999999999999
aF0.8129999999999995
aF0.8169999999999998
aF0.8199999999999998
aF0.8198000000000001
aF0.7965999999999999
aF0.8135999999999997
aF0.8233999999999996
aF0.8012
aF0.8211999999999996
aF0.8122
aF0.8025999999999999
aF0.8055999999999999
aF0.8197999999999998
aF0.8149999999999997
aF0.8227999999999998
aF0.7957999999999998
aF0.8269999999999997
aF0.8007999999999997
aF0.8254
aF0.8264000000000001
aF0.8127999999999999
aF0.8209999999999996
aF0.8229999999999997
aF0.8123999999999999
aF0.786
aF0.8223999999999999
aF0.8188000000000002
aF0.8183999999999995
asS'train_loss'
p5
(lp6
F0.910836288134257
aF0.6714903295040131
aF0.6547643299897512
aF0.6446267571051916
aF0.6396029711763064
aF0.6199861307938893
aF0.6076705092191697
aF0.5833216217160225
aF0.570688138504823
aF0.561427140335242
aF0.5610497260093689
aF0.543070840438207
aF0.5243953296542168
aF0.5221332817276318
aF0.5161421539386114
aF0.517992155055205
aF0.500750548839569
aF0.4999247998992602
aF0.5034414391716321
aF0.5010710352659226
aF0.49555606265862784
aF0.4900209528207779
aF0.4877479659517606
aF0.49071115285158157
aF0.48329548050959903
aF0.478931831518809
aF0.48342710177103676
aF0.4787069358428319
aF0.47526227960983913
aF0.4771095856030782
aF0.4692648623387019
aF0.4778023666143417
aF0.46704673608144126
aF0.46950352549552915
aF0.4693392903606097
aF0.4710653016467889
aF0.4585816263159116
aF0.4717757261792819
aF0.45918413311243056
aF0.4686954991022746
aF0.4621250757575035
aF0.4553375760714213
aF0.45424202213684717
aF0.45402671019236246
aF0.46116502637664475
aF0.45411647349596024
aF0.46049972156683605
aF0.4449809707701206
aF0.45012296001116436
aF0.45006076167027154
aF0.4503327195843061
aF0.4513885390261809
aF0.4504465471704801
aF0.44300347452362376
aF0.44132932523886365
aF0.45041682054599125
aF0.44461740930875143
aF0.4352289011577765
aF0.43347787241141
aF0.43237619057297705
aF0.43591536859671276
aF0.43979271267851194
aF0.43469079345464706
aF0.43843707799911497
aF0.43728711307048795
aF0.43394374574224154
aF0.4263163956006368
aF0.4235672032336394
aF0.42801235963900885
aF0.43397107342878977
aF0.42729978372653327
aF0.4279965930680434
aF0.4305549614628156
aF0.4228799175222715
aF0.43408747856815655
aF0.42296488145987193
aF0.4240023650725683
aF0.42500501106182736
aF0.4207762023806572
aF0.42547129437327386
aF0.42340774754683175
aF0.42016194154818853
aF0.4121556646128495
aF0.4174105037252108
aF0.4189240476985772
aF0.4097565346956253
aF0.40750267282128333
aF0.41308644726872445
aF0.41072330842415494
aF0.4160962085425854
aF0.4107095868885517
aF0.4178699144224326
aF0.4151687030990919
aF0.41935432235399883
aF0.41286870554089544
aF0.4084752106666565
aF0.4209208458662033
aF0.4151254135370255
aF0.4093709156413873
aF0.4105756311615308
asS'train_acc'
p7
(lp8
F0.6017999999999994
aF0.6291999999999995
aF0.6082000000000004
aF0.6151999999999999
aF0.6651999999999997
aF0.6855999999999999
aF0.7027999999999992
aF0.7003999999999997
aF0.6861333333333332
aF0.7364666666666665
aF0.7407333333333334
aF0.7572000000000001
aF0.7616666666666668
aF0.7561333333333337
aF0.7181333333333328
aF0.747333333333333
aF0.760466666666667
aF0.7703333333333334
aF0.7374666666666664
aF0.7784000000000005
aF0.7693333333333332
aF0.7858666666666674
aF0.7514666666666666
aF0.7814666666666673
aF0.7862666666666673
aF0.7909333333333339
aF0.7916666666666671
aF0.7845333333333345
aF0.7624666666666667
aF0.7866666666666672
aF0.786266666666667
aF0.7907333333333333
aF0.7762666666666665
aF0.7934666666666678
aF0.7916666666666673
aF0.7912666666666669
aF0.7997333333333335
aF0.7989333333333336
aF0.7595333333333335
aF0.797266666666667
aF0.7949333333333339
aF0.786466666666667
aF0.7456666666666666
aF0.8025333333333347
aF0.7964000000000012
aF0.7868666666666673
aF0.8006000000000006
aF0.8048000000000003
aF0.8065333333333345
aF0.7451999999999999
aF0.7983333333333338
aF0.7954666666666678
aF0.7868666666666666
aF0.8050666666666679
aF0.7723333333333336
aF0.8111333333333347
aF0.795733333333334
aF0.8074000000000002
aF0.817466666666668
aF0.8145333333333342
aF0.7913333333333339
aF0.7837333333333343
aF0.7830000000000005
aF0.7958666666666668
aF0.8127333333333342
aF0.8219333333333342
aF0.7929333333333335
aF0.8157333333333344
aF0.8105333333333338
aF0.8005999999999999
aF0.7622666666666672
aF0.7373999999999995
aF0.815266666666667
aF0.8143333333333338
aF0.818533333333334
aF0.8243333333333343
aF0.8048000000000012
aF0.8133333333333337
aF0.8162000000000009
aF0.7858000000000003
aF0.8161333333333337
aF0.8127333333333334
aF0.8100000000000013
aF0.8059333333333338
aF0.8210000000000008
aF0.8126666666666674
aF0.8165333333333344
aF0.8075333333333338
aF0.8293333333333343
aF0.8077333333333341
aF0.8225333333333346
aF0.8249333333333346
aF0.8188666666666667
aF0.8150666666666676
aF0.8172000000000008
aF0.8120666666666675
aF0.7693333333333338
aF0.8194666666666679
aF0.823000000000001
aF0.8193333333333344
as.