(dp0
S'valid_acc'
p1
(lp2
F0.626
aF0.6444
aF0.6768000000000002
aF0.6947999999999998
aF0.7068000000000001
aF0.7278000000000003
aF0.7112000000000003
aF0.715
aF0.7415999999999998
aF0.7672000000000003
aF0.7718000000000004
aF0.7648000000000004
aF0.7780000000000001
aF0.8000000000000002
aF0.8001999999999997
aF0.8014
aF0.8222000000000002
aF0.8278000000000004
aF0.8051999999999998
aF0.8336000000000002
aF0.8303999999999996
aF0.8288
aF0.8415999999999997
aF0.8397999999999999
aF0.8496000000000002
aF0.8405999999999999
aF0.8434
aF0.8645999999999993
aF0.8564
aF0.8566000000000003
aF0.8688000000000001
aF0.8410000000000001
aF0.8492000000000003
aF0.8622
aF0.8610000000000003
aF0.8654
aF0.8639999999999997
aF0.8672000000000001
aF0.8708
aF0.8708000000000002
aF0.8704000000000001
aF0.8727999999999999
aF0.8558000000000004
aF0.8764000000000002
aF0.8778000000000001
aF0.8650000000000003
aF0.8777999999999999
aF0.8772000000000001
aF0.8690000000000002
aF0.8724000000000001
aF0.8852
aF0.8733999999999997
aF0.8829999999999998
aF0.8878000000000001
aF0.8720000000000002
aF0.8672000000000001
aF0.8682000000000005
aF0.894
aF0.8752000000000002
aF0.8884000000000001
aF0.8861999999999997
aF0.8705999999999997
aF0.8792000000000003
aF0.8758000000000001
aF0.8722000000000001
aF0.8832000000000005
aF0.8968
aF0.8679999999999999
aF0.8798000000000001
aF0.8788000000000005
aF0.8860000000000002
aF0.8832000000000001
aF0.8916000000000005
aF0.8762000000000006
aF0.8750000000000003
aF0.8822000000000004
aF0.8906000000000005
aF0.8864
aF0.8904000000000002
aF0.8841999999999998
aF0.8890000000000005
aF0.8876000000000002
aF0.8786000000000003
aF0.8880000000000002
aF0.8872000000000003
aF0.8818000000000004
aF0.8838000000000001
aF0.8858000000000001
aF0.8754000000000005
aF0.8826
aF0.8817999999999999
aF0.8880000000000001
aF0.8954
aF0.8892000000000002
aF0.8861999999999997
aF0.8826000000000004
aF0.8868000000000003
aF0.8890000000000003
aF0.8876000000000001
aF0.8796000000000003
asS'test_acc'
p3
(lp4
F0.6134000000000001
aF0.6479999999999997
aF0.6714
aF0.6852000000000003
aF0.7070000000000002
aF0.7417999999999999
aF0.7331999999999997
aF0.7338000000000001
aF0.7498000000000004
aF0.7748000000000002
aF0.7798
aF0.7764
aF0.7799999999999998
aF0.8119999999999997
aF0.8089999999999995
aF0.8102000000000001
aF0.8141999999999997
aF0.8300000000000003
aF0.8122000000000006
aF0.8368000000000001
aF0.8321999999999998
aF0.8261999999999999
aF0.8352
aF0.8366000000000002
aF0.8492000000000001
aF0.8418000000000003
aF0.8423999999999999
aF0.8511999999999995
aF0.8572
aF0.8494000000000003
aF0.8578000000000006
aF0.8549999999999999
aF0.8422000000000003
aF0.8545999999999999
aF0.855
aF0.8599999999999999
aF0.8601999999999999
aF0.8694000000000005
aF0.8669999999999999
aF0.8672000000000001
aF0.8639999999999999
aF0.8662000000000001
aF0.8512000000000001
aF0.8688000000000003
aF0.8667999999999998
aF0.8658000000000005
aF0.8764000000000002
aF0.8752000000000004
aF0.8658000000000005
aF0.8697999999999999
aF0.8763999999999996
aF0.8682000000000002
aF0.8803999999999996
aF0.8772000000000001
aF0.8707999999999998
aF0.8656000000000005
aF0.8632000000000002
aF0.8808000000000002
aF0.8685999999999998
aF0.8814000000000003
aF0.8808000000000002
aF0.8711999999999998
aF0.8788000000000001
aF0.8772000000000004
aF0.8596
aF0.8804000000000005
aF0.8832000000000001
aF0.8618000000000001
aF0.8778
aF0.8702
aF0.8751999999999999
aF0.8765999999999999
aF0.8823999999999996
aF0.8710000000000002
aF0.8735999999999997
aF0.8813999999999999
aF0.8864000000000004
aF0.8834000000000001
aF0.8877999999999999
aF0.8828000000000003
aF0.8774000000000001
aF0.8845999999999998
aF0.8835999999999996
aF0.8828
aF0.8804
aF0.8753999999999997
aF0.8774
aF0.8747999999999998
aF0.8716000000000002
aF0.8765999999999997
aF0.8758
aF0.8737999999999998
aF0.8823999999999996
aF0.8830000000000001
aF0.8818000000000003
aF0.8796000000000003
aF0.8775999999999997
aF0.8900000000000005
aF0.8847999999999996
aF0.8754
asS'train_loss'
p5
(lp6
F0.9275481067101161
aF0.6602542783816655
aF0.6446206476291021
aF0.6240383610129356
aF0.5951023000478745
aF0.5614227744936943
aF0.5435681181152662
aF0.535950124959151
aF0.5224524169166883
aF0.5021690302093824
aF0.492616781493028
aF0.4884395976861318
aF0.4694727861881256
aF0.45595206717650094
aF0.43624960333108903
aF0.422182986587286
aF0.4034873436888059
aF0.3969356769323349
aF0.4017352902889252
aF0.3842918344338735
aF0.37317284365495046
aF0.3716728989283244
aF0.3595966641108195
aF0.3535990048448245
aF0.34086121583978335
aF0.33900843158364297
aF0.32390282027423384
aF0.32313815077145897
aF0.31595052892963094
aF0.31370505010088284
aF0.30640928402543066
aF0.299578049381574
aF0.2982909398774306
aF0.29919026474157967
aF0.2895552794635296
aF0.2844905979683002
aF0.2816980482141177
aF0.2861867879331112
aF0.2737844295303027
aF0.2703182718902826
aF0.25722197748720643
aF0.2579369205236435
aF0.25919651535650096
aF0.25444360663493476
aF0.2513342534999053
aF0.2539341920117537
aF0.250954247713089
aF0.2395512593537569
aF0.2395918795093894
aF0.24302882924675942
aF0.23545880032082397
aF0.23290309603015583
aF0.2297752762089173
aF0.23056991051882506
aF0.23094299343725044
aF0.21928758855909108
aF0.2213096958771348
aF0.21439932977159817
aF0.21780538429816565
aF0.2122272135814031
aF0.21822075934459767
aF0.2114975423241655
aF0.2000436014061173
aF0.20234745524823666
aF0.20229944702237845
aF0.19752622433006764
aF0.1978161914522449
aF0.1947413814564546
aF0.19558675725013017
aF0.1884172078842918
aF0.18941555923471848
aF0.18411346096545458
aF0.19198623320708672
aF0.17963488246003786
aF0.18654977396130562
aF0.17764883839835724
aF0.17231523353606462
aF0.17355593547224998
aF0.17529315434396267
aF0.1709143577516079
aF0.1705697474380334
aF0.17196095087875923
aF0.17302342335383097
aF0.16699695568531753
aF0.15917062621563674
aF0.16205958163365722
aF0.15811782754957676
aF0.1602659647539258
aF0.16796170617764195
aF0.16667264317472777
aF0.15495082064842183
aF0.1481146011998256
aF0.15411015100777148
aF0.1554564512707293
aF0.14714910220354796
aF0.15785833503430088
aF0.14959776837999622
aF0.1462234447989613
aF0.15009583653261263
aF0.1437421855268379
asS'train_acc'
p7
(lp8
F0.6010666666666664
aF0.6445333333333334
aF0.6663333333333328
aF0.6923999999999993
aF0.6989333333333331
aF0.7349999999999998
aF0.7258666666666665
aF0.7288666666666663
aF0.7462666666666664
aF0.7738666666666665
aF0.7760666666666672
aF0.782933333333334
aF0.7808666666666672
aF0.806333333333334
aF0.8216666666666675
aF0.8098666666666675
aF0.8206000000000004
aF0.8356666666666672
aF0.8197333333333343
aF0.8386666666666672
aF0.8454000000000007
aF0.8392000000000007
aF0.8516666666666671
aF0.8507333333333339
aF0.8562666666666682
aF0.8508000000000001
aF0.8528666666666669
aF0.8637333333333345
aF0.8724666666666663
aF0.8669333333333339
aF0.8786666666666667
aF0.8684000000000003
aF0.8685333333333339
aF0.8820666666666667
aF0.8798000000000001
aF0.885200000000001
aF0.8808666666666665
aF0.8910000000000002
aF0.889533333333334
aF0.8941333333333328
aF0.8929333333333334
aF0.8873999999999997
aF0.8701333333333338
aF0.8939333333333336
aF0.8975333333333333
aF0.8932666666666665
aF0.9057333333333338
aF0.9062666666666661
aF0.8961333333333337
aF0.8915333333333333
aF0.9027333333333327
aF0.8976666666666671
aF0.9089999999999994
aF0.9027333333333325
aF0.9056666666666664
aF0.9015999999999987
aF0.8966000000000001
aF0.9211333333333321
aF0.9039333333333331
aF0.9163333333333332
aF0.9181333333333329
aF0.9162666666666661
aF0.919266666666666
aF0.9121333333333326
aF0.8989333333333334
aF0.9223333333333329
aF0.9274666666666653
aF0.9053999999999996
aF0.9215333333333325
aF0.9121999999999993
aF0.9195999999999983
aF0.9208666666666657
aF0.9283333333333317
aF0.9141333333333317
aF0.9271999999999989
aF0.9245999999999989
aF0.9328666666666656
aF0.9339333333333318
aF0.9318666666666655
aF0.9325333333333315
aF0.9333333333333317
aF0.9357333333333329
aF0.9239999999999986
aF0.9384666666666658
aF0.9342666666666656
aF0.935866666666665
aF0.9386666666666652
aF0.9461999999999992
aF0.9362666666666657
aF0.9363999999999999
aF0.9349333333333317
aF0.9453333333333311
aF0.9425333333333321
aF0.9499999999999991
aF0.9461999999999987
aF0.9396666666666657
aF0.9443999999999988
aF0.9453999999999984
aF0.9471333333333317
aF0.9321333333333318
as.