(dp0
S'valid_acc'
p1
(lp2
F0.5447999999999998
aF0.602
aF0.6273999999999997
aF0.6291999999999999
aF0.6419999999999998
aF0.615
aF0.6482000000000001
aF0.6328
aF0.6617999999999994
aF0.653
aF0.6769999999999997
aF0.6457999999999997
aF0.6682000000000001
aF0.6277999999999999
aF0.6825999999999998
aF0.6743999999999999
aF0.6868000000000002
aF0.6887999999999999
aF0.6857999999999997
aF0.6777999999999998
aF0.6583999999999998
aF0.6881999999999999
aF0.6749999999999998
aF0.6911999999999998
aF0.6991999999999997
aF0.7013999999999997
aF0.6995999999999999
aF0.6889999999999995
aF0.7068000000000003
aF0.6966
aF0.7012000000000002
aF0.7075999999999999
aF0.6950000000000002
aF0.7004
aF0.7036
aF0.7121999999999999
aF0.6973999999999999
aF0.7135999999999997
aF0.7204000000000002
aF0.7188000000000003
aF0.7185999999999997
aF0.7166000000000001
aF0.7174
aF0.7069999999999999
aF0.7239999999999999
aF0.7196000000000005
aF0.7234000000000002
aF0.7121999999999998
aF0.7249999999999999
aF0.7242000000000002
aF0.7253999999999999
aF0.7296
aF0.7309999999999997
aF0.7300000000000004
aF0.7298
aF0.7276
aF0.7246000000000004
aF0.7149999999999995
aF0.7260000000000004
aF0.7198
aF0.7214
aF0.7170000000000001
aF0.7356
aF0.7308000000000004
aF0.7108
aF0.7263999999999997
aF0.7243999999999996
aF0.732
aF0.7345999999999998
aF0.7383999999999997
aF0.7290000000000001
aF0.7297999999999999
aF0.7277999999999999
aF0.7315999999999999
aF0.7361999999999996
aF0.7294000000000002
aF0.7312000000000001
aF0.7387999999999999
aF0.7332000000000001
aF0.7381999999999996
aF0.7341999999999999
aF0.7348
aF0.7429999999999997
aF0.7360000000000001
aF0.7394000000000003
aF0.7334
aF0.7238000000000002
aF0.7419999999999999
aF0.7414000000000002
aF0.7293999999999998
aF0.7386
aF0.7384000000000001
aF0.7444
aF0.7453999999999997
aF0.7416000000000001
aF0.7456
aF0.7392
aF0.7221999999999997
aF0.7300000000000001
aF0.7480000000000001
asS'test_acc'
p3
(lp4
F0.5585999999999999
aF0.6113999999999996
aF0.6301999999999999
aF0.6449999999999999
aF0.6445999999999998
aF0.6222000000000001
aF0.6563999999999999
aF0.6443999999999996
aF0.6642
aF0.6621999999999999
aF0.6717999999999997
aF0.6597999999999999
aF0.6683999999999994
aF0.6414
aF0.6872000000000001
aF0.6843999999999997
aF0.6881999999999998
aF0.6968000000000005
aF0.6955999999999999
aF0.6758000000000002
aF0.6621999999999997
aF0.6983999999999998
aF0.6827999999999996
aF0.7021999999999998
aF0.7086
aF0.7061999999999999
aF0.6992000000000003
aF0.6971999999999998
aF0.7174000000000003
aF0.6964000000000001
aF0.7081999999999998
aF0.7168000000000001
aF0.6987999999999996
aF0.7121999999999999
aF0.7095999999999999
aF0.7258000000000002
aF0.6972000000000003
aF0.7245999999999998
aF0.7276
aF0.7296
aF0.7205999999999996
aF0.7340000000000002
aF0.7318000000000001
aF0.7121999999999997
aF0.7298
aF0.7373999999999999
aF0.7354
aF0.7235999999999998
aF0.7325999999999999
aF0.7423999999999998
aF0.7348000000000003
aF0.7399999999999995
aF0.7421999999999997
aF0.7417999999999998
aF0.7472
aF0.7432
aF0.7334000000000002
aF0.7339999999999999
aF0.7377999999999996
aF0.7334
aF0.7393999999999997
aF0.7278000000000001
aF0.7533999999999998
aF0.7444
aF0.7234
aF0.7437999999999999
aF0.7469999999999999
aF0.7453999999999996
aF0.7422
aF0.7542000000000002
aF0.7390000000000002
aF0.7436000000000001
aF0.7439999999999999
aF0.7437999999999999
aF0.7454000000000001
aF0.7421999999999997
aF0.7478000000000005
aF0.7525999999999999
aF0.7400000000000001
aF0.7519999999999999
aF0.7443999999999997
aF0.7424000000000003
aF0.7541999999999999
aF0.7505999999999996
aF0.7482
aF0.7435999999999997
aF0.7350000000000001
aF0.7557999999999998
aF0.7498000000000001
aF0.7438000000000003
aF0.7496
aF0.7558
aF0.7559999999999999
aF0.7562000000000001
aF0.7594
aF0.7541999999999999
aF0.7552000000000002
aF0.7293999999999998
aF0.7398
aF0.7565999999999998
asS'train_loss'
p5
(lp6
F0.8491053555409114
aF0.675597797036171
aF0.6605092678467432
aF0.6502271368106206
aF0.6432340906063716
aF0.6379833956559499
aF0.6343551309903462
aF0.629700294137001
aF0.6199918342630069
aF0.6205475451548894
aF0.6179618175824483
aF0.613902270992597
aF0.6081224917372068
aF0.607022827665011
aF0.6044588674108188
aF0.6039852034052213
aF0.6001932002107302
aF0.5951283714175224
aF0.5939397487044334
aF0.5898155158758164
aF0.5896617867549261
aF0.587506649295489
aF0.5866117011507352
aF0.5818909374872844
aF0.5780514160792033
aF0.576998137931029
aF0.574845049182574
aF0.5738156975309054
aF0.5725821953018506
aF0.5699164403478304
aF0.5681681997577349
aF0.5657485926151276
aF0.5636285724242528
aF0.5614821028709411
aF0.5605062401294708
aF0.5597897285223007
aF0.557600410481294
aF0.5564198969801267
aF0.5560011659065882
aF0.5525895238916079
aF0.5515087367097536
aF0.5497072240710259
aF0.5506331689159075
aF0.5445336538553238
aF0.5449422985315323
aF0.5426823342839877
aF0.543046724597613
aF0.5432529852787653
aF0.5390760049223899
aF0.5392934164404869
aF0.5399709696571032
aF0.5351185461878777
aF0.5326674960056941
aF0.5338097170988718
aF0.5312391711274783
aF0.5326687155167261
aF0.5316156388322513
aF0.5263646013538043
aF0.5257873236139615
aF0.5283364247282346
aF0.5255653561155001
aF0.5272015540798505
aF0.5225594527522723
aF0.5238003105918566
aF0.5202975176771482
aF0.517863899966081
aF0.5207739046216011
aF0.5129334052403768
aF0.5158362900217374
aF0.5121326965093612
aF0.5137385360399882
aF0.5152616252501806
aF0.509381184677283
aF0.5097480753064155
aF0.5075756713747979
aF0.5074023886521657
aF0.5017628753185273
aF0.5055054266254108
aF0.5026786279678345
aF0.5028917158643404
aF0.5016721628109614
aF0.5018022721012433
aF0.4996996139486631
aF0.4996623949209849
aF0.4997240912914276
aF0.49618631273508074
aF0.4948062403003375
aF0.4965656956036886
aF0.4980002196629842
aF0.4921163652340571
aF0.48617360522349673
aF0.4923453198870023
aF0.49171577403942746
aF0.4897511843840281
aF0.48604237715403237
aF0.487673413058122
aF0.48893470217784246
aF0.48484424750010174
aF0.48439820488293966
aF0.48162538359562557
asS'train_acc'
p7
(lp8
F0.5538000000000002
aF0.6049999999999995
aF0.6187999999999997
aF0.6331333333333339
aF0.634
aF0.6341999999999997
aF0.6553333333333329
aF0.6543999999999993
aF0.6596666666666666
aF0.6644666666666659
aF0.6589999999999995
aF0.6699999999999992
aF0.6610666666666662
aF0.6508666666666666
aF0.6821333333333328
aF0.687466666666666
aF0.6837333333333332
aF0.6957333333333335
aF0.6863333333333326
aF0.6861999999999997
aF0.6755999999999993
aF0.6932666666666667
aF0.6948666666666671
aF0.7034666666666658
aF0.7038666666666664
aF0.7090666666666661
aF0.707666666666666
aF0.6832666666666666
aF0.7131333333333334
aF0.7052666666666662
aF0.7163333333333334
aF0.7133333333333335
aF0.7009333333333325
aF0.7070666666666666
aF0.7137333333333328
aF0.7205333333333326
aF0.7060666666666666
aF0.7253333333333335
aF0.7268666666666661
aF0.7297333333333333
aF0.724733333333333
aF0.7308666666666664
aF0.7324666666666668
aF0.7167333333333333
aF0.7357999999999998
aF0.7323333333333333
aF0.7394666666666668
aF0.7309333333333331
aF0.7349999999999998
aF0.7387333333333337
aF0.7438000000000001
aF0.7387333333333334
aF0.7408
aF0.7434666666666663
aF0.7457333333333334
aF0.738866666666666
aF0.7483333333333332
aF0.7394666666666665
aF0.7408666666666668
aF0.7445333333333329
aF0.7384666666666668
aF0.7319333333333333
aF0.7497333333333333
aF0.7512000000000001
aF0.7276666666666665
aF0.7484666666666671
aF0.7475333333333328
aF0.755733333333333
aF0.7524666666666666
aF0.7587333333333335
aF0.7551333333333332
aF0.7587333333333336
aF0.7571333333333334
aF0.7569333333333336
aF0.7535999999999997
aF0.7463333333333332
aF0.7554666666666666
aF0.7668666666666666
aF0.7578666666666669
aF0.7645333333333336
aF0.7619333333333335
aF0.7631333333333339
aF0.7688000000000004
aF0.7666666666666668
aF0.7650666666666668
aF0.7569999999999999
aF0.7487999999999999
aF0.7681333333333341
aF0.7686666666666665
aF0.7575333333333332
aF0.7638000000000001
aF0.7732666666666665
aF0.7777333333333336
aF0.7722666666666671
aF0.7788666666666668
aF0.7756666666666664
aF0.7698000000000003
aF0.7442000000000004
aF0.7528666666666674
aF0.7740666666666669
as.