(lp0
(lp1
F0.8929140127388535
aF0.8929140127388535
aF0.8929140127388535
aF0.8929140127388535
aF0.8929140127388535
aF0.8929140127388535
aF0.8929140127388535
aF0.8929140127388535
aF0.8929140127388535
aF0.8929140127388535
aa(lp2
F0.8941082802547771
aF0.8890326433121019
aF0.8953025477707006
aF0.896297770700637
aF0.8972929936305732
aF0.8938097133757962
aF0.892515923566879
aF0.8960987261146497
aF0.8924164012738853
aF0.8908240445859873
aa(lp3
F0.8960987261146497
aF0.897890127388535
aF0.8961982484076433
aF0.8947054140127388
aF0.897890127388535
aF0.8958996815286624
aF0.8971934713375797
aF0.8935111464968153
aF0.8961982484076433
aF0.8957006369426752
aa.